target datalayout = "e-m:e-p270:32:32-p271:32:32-p272:64:64-i64:64-i128:128-f80:128-n8:16:32:64-S128"
target triple = "x86_64-pc-linux-gnu"

%struct.job_defaults = type { i16, i64 }

; Function Attrs: nounwind uwtable
define dso_local i64 @cons_helpers_get_def_cpu_per_gpu(ptr noundef %0) #0 {
  %2 = alloca i64, align 8
  %3 = alloca ptr, align 8
  %4 = alloca i64, align 8
  %5 = alloca ptr, align 8
  %6 = alloca ptr, align 8
  %7 = alloca i32, align 4
  store ptr %0, ptr %3, align 8
  call void @llvm.lifetime.start.p0(i64 8, ptr %4) #3
  store i64 -2, ptr %4, align 8
  call void @llvm.lifetime.start.p0(i64 8, ptr %5) #3
  call void @llvm.lifetime.start.p0(i64 8, ptr %6) #3
  %8 = load ptr, ptr %3, align 8
  %9 = icmp ne ptr %8, null
  br i1 %9, label %12, label %10

10:                                               ; preds = %1
  %11 = load i64, ptr %4, align 8
  store i64 %11, ptr %2, align 8
  store i32 1, ptr %7, align 4
  br label %33

12:                                               ; preds = %1
  %13 = load ptr, ptr %3, align 8
  %14 = call ptr @slurm_list_iterator_create(ptr noundef %13)
  store ptr %14, ptr %5, align 8
  br label %15

15:                                               ; preds = %29, %12
  %16 = load ptr, ptr %5, align 8
  %17 = call ptr @slurm_list_next(ptr noundef %16)
  store ptr %17, ptr %6, align 8
  %18 = icmp ne ptr %17, null
  br i1 %18, label %19, label %30

19:                                               ; preds = %15
  %20 = load ptr, ptr %6, align 8
  %21 = getelementptr inbounds nuw %struct.job_defaults, ptr %20, i32 0, i32 0
  %22 = load i16, ptr %21, align 8
  %23 = zext i16 %22 to i32
  %24 = icmp eq i32 %23, 1
  br i1 %24, label %25, label %29

25:                                               ; preds = %19
  %26 = load ptr, ptr %6, align 8
  %27 = getelementptr inbounds nuw %struct.job_defaults, ptr %26, i32 0, i32 1
  %28 = load i64, ptr %27, align 8
  store i64 %28, ptr %4, align 8
  br label %30

29:                                               ; preds = %19
  br label %15, !llvm.loop !8

30:                                               ; preds = %25, %15
  %31 = load ptr, ptr %5, align 8
  call void @slurm_list_iterator_destroy(ptr noundef %31)
  %32 = load i64, ptr %4, align 8
  store i64 %32, ptr %2, align 8
  store i32 1, ptr %7, align 4
  br label %33

33:                                               ; preds = %30, %10
  call void @llvm.lifetime.end.p0(i64 8, ptr %6) #3
  call void @llvm.lifetime.end.p0(i64 8, ptr %5) #3
  call void @llvm.lifetime.end.p0(i64 8, ptr %4) #3
  %34 = load i64, ptr %2, align 8
  ret i64 %34
}